target datalayout = "e-m:e-p270:32:32-p271:32:32-p272:64:64-i64:64-i128:128-f80:128-n8:16:32:64-S128"
target triple = "x86_64-pc-linux-gnu"

%"struct.faiss::RandomGenerator" = type { %"class.std::mersenne_twister_engine" }
%"class.std::mersenne_twister_engine" = type { [624 x i64], i64 }

; Function Attrs: mustprogress nounwind uwtable
define linkonce_odr noundef i64 @_ZNSt8__detail4_ModImLm624ELm1ELm0ELb1ELb1EE6__calcEm(i64 noundef %0) #3 comdat align 2 {
  %2 = alloca i64, align 8
  %3 = alloca i64, align 8
  store i64 %0, ptr %2, align 8, !tbaa !9
  call void @llvm.lifetime.start.p0(i64 8, ptr %3) #5
  %4 = load i64, ptr %2, align 8, !tbaa !9
  %5 = mul i64 1, %4
  %6 = add i64 %5, 0
  store i64 %6, ptr %3, align 8, !tbaa !9
  %7 = load i64, ptr %3, align 8, !tbaa !9
  %8 = urem i64 %7, 624
  store i64 %8, ptr %3, align 8, !tbaa !9
  %9 = load i64, ptr %3, align 8, !tbaa !9
  call void @llvm.lifetime.end.p0(i64 8, ptr %3) #5
  ret i64 %9
}

; Function Attrs: mustprogress nounwind uwtable
define linkonce_odr noundef i64 @_ZNSt8__detail4_ModImLm4294967296ELm1ELm0ELb1ELb1EE6__calcEm(i64 noundef %0) #3 comdat align 2 {
  %2 = alloca i64, align 8
  %3 = alloca i64, align 8
  store i64 %0, ptr %2, align 8, !tbaa !9
  call void @llvm.lifetime.start.p0(i64 8, ptr %3) #5
  %4 = load i64, ptr %2, align 8, !tbaa !9
  %5 = mul i64 1, %4
  %6 = add i64 %5, 0
  store i64 %6, ptr %3, align 8, !tbaa !9
  %7 = load i64, ptr %3, align 8, !tbaa !9
  %8 = urem i64 %7, 4294967296
  store i64 %8, ptr %3, align 8, !tbaa !9
  %9 = load i64, ptr %3, align 8, !tbaa !9
  call void @llvm.lifetime.end.p0(i64 8, ptr %3) #5
  ret i64 %9
}

; Function Attrs: inlinehint mustprogress uwtable
define linkonce_odr noundef i64 @_ZNSt8__detail5__modImTnT_Lm624ETnS1_Lm1ETnS1_Lm0EEES1_S1_(i64 noundef %0) #1 comdat {
  %2 = alloca i64, align 8
  %3 = alloca i64, align 8
  store i64 %0, ptr %2, align 8, !tbaa !9
  call void @llvm.lifetime.start.p0(i64 8, ptr %3) #5
  store i64 1, ptr %3, align 8, !tbaa !9
  %4 = load i64, ptr %2, align 8, !tbaa !9
  %5 = call noundef i64 @_ZNSt8__detail4_ModImLm624ELm1ELm0ELb1ELb1EE6__calcEm(i64 noundef %4)
  call void @llvm.lifetime.end.p0(i64 8, ptr %3) #5
  ret i64 %5
}

; Function Attrs: inlinehint mustprogress uwtable
define linkonce_odr noundef i64 @_ZNSt8__detail5__modImTnT_Lm4294967296ETnS1_Lm1ETnS1_Lm0EEES1_S1_(i64 noundef %0) #1 comdat {
  %2 = alloca i64, align 8
  %3 = alloca i64, align 8
  store i64 %0, ptr %2, align 8, !tbaa !9
  call void @llvm.lifetime.start.p0(i64 8, ptr %3) #5
  store i64 1, ptr %3, align 8, !tbaa !9
  %4 = load i64, ptr %2, align 8, !tbaa !9
  %5 = call noundef i64 @_ZNSt8__detail4_ModImLm4294967296ELm1ELm0ELb1ELb1EE6__calcEm(i64 noundef %4)
  call void @llvm.lifetime.end.p0(i64 8, ptr %3) #5
  ret i64 %5
}

; Function Attrs: mustprogress uwtable
define linkonce_odr void @_ZNSt23mersenne_twister_engineImLm32ELm624ELm397ELm31ELm2567483615ELm11ELm4294967295ELm7ELm2636928640ELm15ELm4022730752ELm18ELm1812433253EE4seedEm(ptr noundef nonnull align 8 dereferenceable(5000) %0, i64 noundef %1) #0 comdat align 2 {
  %3 = alloca ptr, align 8
  %4 = alloca i64, align 8
  %5 = alloca i64, align 8
  %6 = alloca i64, align 8
  store ptr %0, ptr %3, align 8, !tbaa !11
  store i64 %1, ptr %4, align 8, !tbaa !9
  %7 = load ptr, ptr %3, align 8
  %8 = load i64, ptr %4, align 8, !tbaa !9
  %9 = call noundef i64 @_ZNSt8__detail5__modImTnT_Lm4294967296ETnS1_Lm1ETnS1_Lm0EEES1_S1_(i64 noundef %8)
  %10 = getelementptr inbounds nuw %"class.std::mersenne_twister_engine", ptr %7, i32 0, i32 0
  %11 = getelementptr inbounds [624 x i64], ptr %10, i64 0, i64 0
  store i64 %9, ptr %11, align 8, !tbaa !9
  call void @llvm.lifetime.start.p0(i64 8, ptr %5) #5
  store i64 1, ptr %5, align 8, !tbaa !9
  br label %12

12:                                               ; preds = %37, %2
  %13 = load i64, ptr %5, align 8, !tbaa !9
  %14 = icmp ult i64 %13, 624
  br i1 %14, label %16, label %15

15:                                               ; preds = %12
  call void @llvm.lifetime.end.p0(i64 8, ptr %5) #5
  br label %40

16:                                               ; preds = %12
  call void @llvm.lifetime.start.p0(i64 8, ptr %6) #5
  %17 = getelementptr inbounds nuw %"class.std::mersenne_twister_engine", ptr %7, i32 0, i32 0
  %18 = load i64, ptr %5, align 8, !tbaa !9
  %19 = sub i64 %18, 1
  %20 = getelementptr inbounds nuw [624 x i64], ptr %17, i64 0, i64 %19
  %21 = load i64, ptr %20, align 8, !tbaa !9
  store i64 %21, ptr %6, align 8, !tbaa !9
  %22 = load i64, ptr %6, align 8, !tbaa !9
  %23 = lshr i64 %22, 30
  %24 = load i64, ptr %6, align 8, !tbaa !9
  %25 = xor i64 %24, %23
  store i64 %25, ptr %6, align 8, !tbaa !9
  %26 = load i64, ptr %6, align 8, !tbaa !9
  %27 = mul i64 %26, 1812433253
  store i64 %27, ptr %6, align 8, !tbaa !9
  %28 = load i64, ptr %5, align 8, !tbaa !9
  %29 = call noundef i64 @_ZNSt8__detail5__modImTnT_Lm624ETnS1_Lm1ETnS1_Lm0EEES1_S1_(i64 noundef %28)
  %30 = load i64, ptr %6, align 8, !tbaa !9
  %31 = add i64 %30, %29
  store i64 %31, ptr %6, align 8, !tbaa !9
  %32 = load i64, ptr %6, align 8, !tbaa !9
  %33 = call noundef i64 @_ZNSt8__detail5__modImTnT_Lm4294967296ETnS1_Lm1ETnS1_Lm0EEES1_S1_(i64 noundef %32)
  %34 = getelementptr inbounds nuw %"class.std::mersenne_twister_engine", ptr %7, i32 0, i32 0
  %35 = load i64, ptr %5, align 8, !tbaa !9
  %36 = getelementptr inbounds nuw [624 x i64], ptr %34, i64 0, i64 %35
  store i64 %33, ptr %36, align 8, !tbaa !9
  call void @llvm.lifetime.end.p0(i64 8, ptr %6) #5
  br label %37

37:                                               ; preds = %16
  %38 = load i64, ptr %5, align 8, !tbaa !9
  %39 = add i64 %38, 1
  store i64 %39, ptr %5, align 8, !tbaa !9
  br label %12, !llvm.loop !13

40:                                               ; preds = %15
  %41 = getelementptr inbounds nuw %"class.std::mersenne_twister_engine", ptr %7, i32 0, i32 1
  store i64 624, ptr %41, align 8, !tbaa !15
  ret void
}

; Function Attrs: mustprogress uwtable
define linkonce_odr void @_ZNSt23mersenne_twister_engineImLm32ELm624ELm397ELm31ELm2567483615ELm11ELm4294967295ELm7ELm2636928640ELm15ELm4022730752ELm18ELm1812433253EEC2Em(ptr noundef nonnull align 8 dereferenceable(5000) %0, i64 noundef %1) unnamed_addr #0 comdat align 2 {
  %3 = alloca ptr, align 8
  %4 = alloca i64, align 8
  store ptr %0, ptr %3, align 8, !tbaa !11
  store i64 %1, ptr %4, align 8, !tbaa !9
  %5 = load ptr, ptr %3, align 8
  %6 = load i64, ptr %4, align 8, !tbaa !9
  call void @_ZNSt23mersenne_twister_engineImLm32ELm624ELm397ELm31ELm2567483615ELm11ELm4294967295ELm7ELm2636928640ELm15ELm4022730752ELm18ELm1812433253EE4seedEm(ptr noundef nonnull align 8 dereferenceable(5000) %5, i64 noundef %6)
  ret void
}

; Function Attrs: mustprogress uwtable
define void @_ZN5faiss15RandomGeneratorC2El(ptr noundef nonnull align 8 dereferenceable(5000) %0, i64 noundef %1) unnamed_addr #0 align 2 {
  %3 = alloca ptr, align 8
  %4 = alloca i64, align 8
  store ptr %0, ptr %3, align 8, !tbaa !4
  store i64 %1, ptr %4, align 8, !tbaa !9
  %5 = load ptr, ptr %3, align 8
  %6 = getelementptr inbounds nuw %"struct.faiss::RandomGenerator", ptr %5, i32 0, i32 0
  %7 = load i64, ptr %4, align 8, !tbaa !9
  %8 = trunc i64 %7 to i32
  %9 = zext i32 %8 to i64
  call void @_ZNSt23mersenne_twister_engineImLm32ELm624ELm397ELm31ELm2567483615ELm11ELm4294967295ELm7ELm2636928640ELm15ELm4022730752ELm18ELm1812433253EEC2Em(ptr noundef nonnull align 8 dereferenceable(5000) %6, i64 noundef %9)
  ret void
}