; Function Attrs: mustprogress nofree norecurse nosync nounwind memory(argmem: write) uwtable
define void @_ZN5faiss15RandomGeneratorC2El(ptr noundef nonnull writeonly align 8 captures(none) dereferenceable(5000) initializes((0, 8)) %0, i64 noundef %1) unnamed_addr #0 align 2 {
  %3 = and i64 %1, 4294967295
  store i64 %3, ptr %0, align 8, !tbaa !4
  br label %4

4:                                                ; preds = %4, %2
  %5 = phi i64 [ %3, %2 ], [ %10, %4 ]
  %.011.i.i = phi i64 [ 1, %2 ], [ %12, %4 ]
  %6 = lshr i64 %5, 30
  %7 = xor i64 %6, %5
  %8 = mul nuw nsw i64 %7, 1812433253
  %9 = add nuw i64 %8, %.011.i.i
  %10 = and i64 %9, 4294967295
  %11 = getelementptr inbounds nuw [624 x i64], ptr %0, i64 0, i64 %.011.i.i
  store i64 %10, ptr %11, align 8, !tbaa !4
  %12 = add nuw nsw i64 %.011.i.i, 1
  %exitcond.not.i.i = icmp eq i64 %12, 624
  br i1 %exitcond.not.i.i, label %_ZNSt23mersenne_twister_engineImLm32ELm624ELm397ELm31ELm2567483615ELm11ELm4294967295ELm7ELm2636928640ELm15ELm4022730752ELm18ELm1812433253EEC2Em.exit, label %4, !llvm.loop !8

_ZNSt23mersenne_twister_engineImLm32ELm624ELm397ELm31ELm2567483615ELm11ELm4294967295ELm7ELm2636928640ELm15ELm4022730752ELm18ELm1812433253EEC2Em.exit: ; preds = %4
  %13 = getelementptr inbounds nuw i8, ptr %0, i64 4992
  store i64 624, ptr %13, align 8, !tbaa !10
  ret void
}